target datalayout = "e-m:e-p270:32:32-p271:32:32-p272:64:64-i64:64-i128:128-f80:128-n8:16:32:64-S128"
target triple = "x86_64-pc-linux-gnu"

%struct.forward = type { %struct.slurm_node_alias_addrs_t, i16, i16, ptr, i32, i16, i16 }
%struct.slurm_node_alias_addrs_t = type { i64, ptr, ptr, i32, ptr }
%struct.sockaddr_storage = type { i16, [118 x i8], i64 }
%struct.slurm_msg = type { %struct.sockaddr_storage, ptr, i32, i32, i32, i8, i32, i8, i32, ptr, ptr, i32, ptr, ptr, i16, i8, i16, i16, %struct.forward, ptr, %struct.sockaddr_storage, ptr }
%struct.network_callerid_resp = type { i32, i32, ptr }

@.str.2 = private unnamed_addr constant [22 x i8] c"slurm_protocol_pack.c\00", align 1
@__func__._unpack_network_callerid_resp_msg = private unnamed_addr constant [34 x i8] c"_unpack_network_callerid_resp_msg\00", align 1

; Function Attrs: nounwind uwtable
define internal i32 @_unpack_network_callerid_resp_msg(ptr noundef %0, ptr noundef %1) #0 {
  %3 = alloca i32, align 4
  %4 = alloca ptr, align 8
  %5 = alloca ptr, align 8
  %6 = alloca ptr, align 8
  %7 = alloca i32, align 4
  %8 = alloca i32, align 4
  store ptr %0, ptr %4, align 8
  store ptr %1, ptr %5, align 8
  call void @llvm.lifetime.start.p0(i64 8, ptr %6) #6
  %9 = call ptr @slurm_xcalloc(i64 noundef 1, i64 noundef 16, i1 noundef zeroext true, i1 noundef zeroext false, ptr noundef @.str.2, i32 noundef 470, ptr noundef @__func__._unpack_network_callerid_resp_msg)
  store ptr %9, ptr %6, align 8
  %10 = load ptr, ptr %6, align 8
  %11 = load ptr, ptr %4, align 8
  %12 = getelementptr inbounds nuw %struct.slurm_msg, ptr %11, i32 0, i32 13
  store ptr %10, ptr %12, align 8
  %13 = load ptr, ptr %4, align 8
  %14 = getelementptr inbounds nuw %struct.slurm_msg, ptr %13, i32 0, i32 17
  %15 = load i16, ptr %14, align 2
  %16 = zext i16 %15 to i32
  %17 = icmp sge i32 %16, 10240
  br i1 %17, label %18, label %52

18:                                               ; preds = %2
  br label %19

19:                                               ; preds = %18
  %20 = load ptr, ptr %6, align 8
  %21 = getelementptr inbounds nuw %struct.network_callerid_resp, ptr %20, i32 0, i32 0
  %22 = load ptr, ptr %5, align 8
  %23 = call i32 @unpack32(ptr noundef %21, ptr noundef %22)
  %24 = icmp ne i32 %23, 0
  br i1 %24, label %25, label %26

25:                                               ; preds = %19
  br label %53

26:                                               ; preds = %19
  br label %27

27:                                               ; preds = %26
  br label %28

28:                                               ; preds = %27
  br label %29

29:                                               ; preds = %28
  %30 = load ptr, ptr %6, align 8
  %31 = getelementptr inbounds nuw %struct.network_callerid_resp, ptr %30, i32 0, i32 1
  %32 = load ptr, ptr %5, align 8
  %33 = call i32 @unpack32(ptr noundef %31, ptr noundef %32)
  %34 = icmp ne i32 %33, 0
  br i1 %34, label %35, label %36

35:                                               ; preds = %29
  br label %53

36:                                               ; preds = %29
  br label %37

37:                                               ; preds = %36
  br label %38

38:                                               ; preds = %37
  br label %39

39:                                               ; preds = %38
  call void @llvm.lifetime.start.p0(i64 4, ptr %7) #6
  %40 = load ptr, ptr %6, align 8
  %41 = getelementptr inbounds nuw %struct.network_callerid_resp, ptr %40, i32 0, i32 2
  %42 = load ptr, ptr %5, align 8
  %43 = call i32 @unpackstr_xmalloc_chooser(ptr noundef %41, ptr noundef %7, ptr noundef %42)
  %44 = icmp ne i32 %43, 0
  br i1 %44, label %45, label %46

45:                                               ; preds = %39
  store i32 4, ptr %8, align 4
  br label %47

46:                                               ; preds = %39
  store i32 0, ptr %8, align 4
  br label %47

47:                                               ; preds = %45, %46
  call void @llvm.lifetime.end.p0(i64 4, ptr %7) #6
  %48 = load i32, ptr %8, align 4
  switch i32 %48, label %57 [
    i32 0, label %49
    i32 4, label %53
  ]

49:                                               ; preds = %47
  br label %50

50:                                               ; preds = %49
  br label %51

51:                                               ; preds = %50
  br label %52

52:                                               ; preds = %51, %2
  store i32 0, ptr %3, align 4
  store i32 1, ptr %8, align 4
  br label %57

53:                                               ; preds = %47, %35, %25
  %54 = load ptr, ptr %4, align 8
  %55 = getelementptr inbounds nuw %struct.slurm_msg, ptr %54, i32 0, i32 13
  store ptr null, ptr %55, align 8
  %56 = load ptr, ptr %6, align 8
  call void @slurm_free_network_callerid_resp(ptr noundef %56)
  store i32 -1, ptr %3, align 4
  store i32 1, ptr %8, align 4
  br label %57

57:                                               ; preds = %53, %52, %47
  call void @llvm.lifetime.end.p0(i64 8, ptr %6) #6
  %58 = load i32, ptr %3, align 4
  ret i32 %58
}