; Function Attrs: nounwind uwtable
define internal fastcc range(i32 -1, 1) i32 @_unpack_network_callerid_resp_msg(ptr noundef captures(none) initializes((200, 208)) %0, ptr noundef %1) unnamed_addr #0 {
  %3 = alloca i32, align 4
  %4 = tail call ptr @slurm_xcalloc(i64 noundef 1, i64 noundef 16, i1 noundef zeroext true, i1 noundef zeroext false, ptr noundef nonnull @.str.2, i32 noundef 470, ptr noundef nonnull @__func__._unpack_network_callerid_resp_msg) #7
  %5 = getelementptr inbounds nuw i8, ptr %0, i64 200
  store ptr %4, ptr %5, align 8
  %6 = getelementptr inbounds nuw i8, ptr %0, i64 214
  %7 = load i16, ptr %6, align 2
  %8 = icmp ugt i16 %7, 10239
  br i1 %8, label %9, label %18

9:                                                ; preds = %2
  %10 = tail call i32 @unpack32(ptr noundef %4, ptr noundef %1) #7
  %.not = icmp eq i32 %10, 0
  br i1 %.not, label %11, label %17

11:                                               ; preds = %9
  %12 = getelementptr inbounds nuw i8, ptr %4, i64 4
  %13 = tail call i32 @unpack32(ptr noundef nonnull %12, ptr noundef %1) #7
  %.not13 = icmp eq i32 %13, 0
  br i1 %.not13, label %14, label %17

14:                                               ; preds = %11
  call void @llvm.lifetime.start.p0(i64 4, ptr nonnull %3) #7
  %15 = getelementptr inbounds nuw i8, ptr %4, i64 8
  %16 = call i32 @unpackstr_xmalloc_chooser(ptr noundef nonnull %15, ptr noundef nonnull %3, ptr noundef %1) #7
  %.not14 = icmp eq i32 %16, 0
  call void @llvm.lifetime.end.p0(i64 4, ptr nonnull %3) #7
  br i1 %.not14, label %18, label %17

17:                                               ; preds = %14, %11, %9
  store ptr null, ptr %5, align 8
  call void @slurm_free_network_callerid_resp(ptr noundef %4) #7
  br label %18

18:                                               ; preds = %14, %2, %17
  %.012 = phi i32 [ -1, %17 ], [ 0, %14 ], [ 0, %2 ]
  ret i32 %.012
}